target datalayout = "e-m:e-p270:32:32-p271:32:32-p272:64:64-i64:64-i128:128-f80:128-n8:16:32:64-S128"
target triple = "x86_64-unknown-linux-gnu"

%"class.QuantLib::DayCounter" = type { %"class.boost::shared_ptr.6" }
%"class.boost::shared_ptr.6" = type { ptr, %"class.boost::detail::shared_count" }
%"class.boost::detail::shared_count" = type { ptr }
%"class.QuantLib::Date" = type { i64 }
%"class.QuantLib::Period" = type { i32, i32 }
%"struct.std::pair" = type { %"class.QuantLib::Date", %"class.QuantLib::Date" }

; Function Attrs: mustprogress nounwind uwtable
define linkonce_odr noundef i32 @_ZNK8QuantLib6Period5unitsEv(ptr noundef nonnull align 4 dereferenceable(8) %this) #4 comdat align 2 {
entry:
  %this.addr = alloca ptr, align 8
  store ptr %this, ptr %this.addr, align 8, !tbaa !3
  %this1 = load ptr, ptr %this.addr, align 8
  %units_ = getelementptr inbounds nuw %"class.QuantLib::Period", ptr %this1, i32 0, i32 1
  %0 = load i32, ptr %units_, align 4, !tbaa !44
  ret i32 %0
}

; Function Attrs: mustprogress nounwind uwtable
define linkonce_odr noundef i32 @_ZNK8QuantLib6Period6lengthEv(ptr noundef nonnull align 4 dereferenceable(8) %this) #4 comdat align 2 {
entry:
  %this.addr = alloca ptr, align 8
  store ptr %this, ptr %this.addr, align 8, !tbaa !3
  %this1 = load ptr, ptr %this.addr, align 8
  %length_ = getelementptr inbounds nuw %"class.QuantLib::Period", ptr %this1, i32 0, i32 0
  %0 = load i32, ptr %length_, align 4, !tbaa !43
  ret i32 %0
}

; Function Attrs: inlinehint mustprogress uwtable
define linkonce_odr i64 @_ZNK8QuantLib4DatemiERKNS_6PeriodE(ptr noundef nonnull align 8 dereferenceable(8) %this, ptr noundef nonnull align 4 dereferenceable(8) %p) #9 comdat align 2 {
entry:
  %retval = alloca %"class.QuantLib::Date", align 8
  %this.addr = alloca ptr, align 8
  %p.addr = alloca ptr, align 8
  store ptr %this, ptr %this.addr, align 8, !tbaa !3
  store ptr %p, ptr %p.addr, align 8, !tbaa !3
  %this1 = load ptr, ptr %this.addr, align 8
  %0 = load ptr, ptr %p.addr, align 8, !tbaa !3
  %call = call noundef i32 @_ZNK8QuantLib6Period6lengthEv(ptr noundef nonnull align 4 dereferenceable(8) %0)
  %sub = sub nsw i32 0, %call
  %1 = load ptr, ptr %p.addr, align 8, !tbaa !3
  %call2 = call noundef i32 @_ZNK8QuantLib6Period5unitsEv(ptr noundef nonnull align 4 dereferenceable(8) %1)
  %call3 = call i64 @_ZN8QuantLib4Date7advanceERKS0_iNS_8TimeUnitE(ptr noundef nonnull align 8 dereferenceable(8) %this1, i32 noundef %sub, i32 noundef %call2)
  %coerce.dive = getelementptr inbounds nuw %"class.QuantLib::Date", ptr %retval, i32 0, i32 0
  store i64 %call3, ptr %coerce.dive, align 8
  %coerce.dive4 = getelementptr inbounds nuw %"class.QuantLib::Date", ptr %retval, i32 0, i32 0
  %2 = load i64, ptr %coerce.dive4, align 8
  ret i64 %2
}

; Function Attrs: inlinehint mustprogress uwtable
define linkonce_odr noundef zeroext i1 @_ZN8QuantLibeqERKNS_6PeriodES2_(ptr noundef nonnull align 4 dereferenceable(8) %p1, ptr noundef nonnull align 4 dereferenceable(8) %p2) #9 comdat {
entry:
  %p1.addr = alloca ptr, align 8
  %p2.addr = alloca ptr, align 8
  store ptr %p1, ptr %p1.addr, align 8, !tbaa !3
  store ptr %p2, ptr %p2.addr, align 8, !tbaa !3
  %0 = load ptr, ptr %p1.addr, align 8, !tbaa !3
  %1 = load ptr, ptr %p2.addr, align 8, !tbaa !3
  %call = call noundef zeroext i1 @_ZN8QuantLibltERKNS_6PeriodES2_(ptr noundef nonnull align 4 dereferenceable(8) %0, ptr noundef nonnull align 4 dereferenceable(8) %1)
  br i1 %call, label %lor.end, label %lor.rhs

lor.rhs:                                          ; preds = %entry
  %2 = load ptr, ptr %p2.addr, align 8, !tbaa !3
  %3 = load ptr, ptr %p1.addr, align 8, !tbaa !3
  %call1 = call noundef zeroext i1 @_ZN8QuantLibltERKNS_6PeriodES2_(ptr noundef nonnull align 4 dereferenceable(8) %2, ptr noundef nonnull align 4 dereferenceable(8) %3)
  br label %lor.end

lor.end:                                          ; preds = %lor.rhs, %entry
  %4 = phi i1 [ true, %entry ], [ %call1, %lor.rhs ]
  %lnot = xor i1 %4, true
  ret i1 %lnot
}

; Function Attrs: mustprogress nounwind uwtable
define linkonce_odr void @_ZN8QuantLib6PeriodC2EiNS_8TimeUnitE(ptr noundef nonnull align 4 dereferenceable(8) %this, i32 noundef %n, i32 noundef %units) unnamed_addr #4 comdat align 2 {
entry:
  %this.addr = alloca ptr, align 8
  %n.addr = alloca i32, align 4
  %units.addr = alloca i32, align 4
  store ptr %this, ptr %this.addr, align 8, !tbaa !3
  store i32 %n, ptr %n.addr, align 4, !tbaa !21
  store i32 %units, ptr %units.addr, align 4, !tbaa !34
  %this1 = load ptr, ptr %this.addr, align 8
  %length_ = getelementptr inbounds nuw %"class.QuantLib::Period", ptr %this1, i32 0, i32 0
  %0 = load i32, ptr %n.addr, align 4, !tbaa !21
  store i32 %0, ptr %length_, align 4, !tbaa !43
  %units_ = getelementptr inbounds nuw %"class.QuantLib::Period", ptr %this1, i32 0, i32 1
  %1 = load i32, ptr %units.addr, align 4, !tbaa !34
  store i32 %1, ptr %units_, align 4, !tbaa !44
  ret void
}

; Function Attrs: mustprogress uwtable
define noundef double @_ZNK8QuantLib20CPIVolatilitySurface12timeFromBaseERKNS_4DateERKNS_6PeriodE(ptr noundef nonnull align 8 dereferenceable(93) %this, ptr noundef nonnull align 8 dereferenceable(8) %maturityDate, ptr noundef nonnull align 4 dereferenceable(8) %obsLag) unnamed_addr #7 align 2 personality ptr @__gxx_personality_v0 {
entry:
  %this.addr = alloca ptr, align 8
  %maturityDate.addr = alloca ptr, align 8
  %obsLag.addr = alloca ptr, align 8
  %useLag = alloca %"class.QuantLib::Period", align 4
  %ref.tmp = alloca %"class.QuantLib::Period", align 4
  %ref.tmp2 = alloca %"class.QuantLib::Period", align 4
  %useDate = alloca %"class.QuantLib::Date", align 8
  %ref.tmp8 = alloca %"class.QuantLib::Date", align 8
  %ref.tmp10 = alloca %"struct.std::pair", align 8
  %ref.tmp11 = alloca %"class.QuantLib::Date", align 8
  %ref.tmp19 = alloca %"class.QuantLib::DayCounter", align 8
  %ref.tmp22 = alloca %"class.QuantLib::Date", align 8
  %exn.slot = alloca ptr, align 8
  %ehselector.slot = alloca i32, align 4
  %ref.tmp27 = alloca %"class.QuantLib::Date", align 8
  %ref.tmp30 = alloca %"class.QuantLib::Date", align 8
  store ptr %this, ptr %this.addr, align 8, !tbaa !3
  store ptr %maturityDate, ptr %maturityDate.addr, align 8, !tbaa !3
  store ptr %obsLag, ptr %obsLag.addr, align 8, !tbaa !3
  %this1 = load ptr, ptr %this.addr, align 8
  call void @llvm.lifetime.start.p0(i64 8, ptr %useLag) #17
  %0 = load ptr, ptr %obsLag.addr, align 8, !tbaa !3
  call void @llvm.memcpy.p0.p0.i64(ptr align 4 %useLag, ptr align 4 %0, i64 8, i1 false), !tbaa.struct !33
  %1 = load ptr, ptr %obsLag.addr, align 8, !tbaa !3
  call void @llvm.lifetime.start.p0(i64 8, ptr %ref.tmp) #17
  call void @_ZN8QuantLib6PeriodC2EiNS_8TimeUnitE(ptr noundef nonnull align 4 dereferenceable(8) %ref.tmp, i32 noundef -1, i32 noundef 0)
  %call = call noundef zeroext i1 @_ZN8QuantLibeqERKNS_6PeriodES2_(ptr noundef nonnull align 4 dereferenceable(8) %1, ptr noundef nonnull align 4 dereferenceable(8) %ref.tmp)
  call void @llvm.lifetime.end.p0(i64 8, ptr %ref.tmp) #17
  br i1 %call, label %if.then, label %if.end

if.then:                                          ; preds = %entry
  call void @llvm.lifetime.start.p0(i64 8, ptr %ref.tmp2) #17
  %vtable = load ptr, ptr %this1, align 8, !tbaa !26
  %vfn = getelementptr inbounds ptr, ptr %vtable, i64 14
  %2 = load ptr, ptr %vfn, align 8
  %call3 = call i64 %2(ptr noundef nonnull align 8 dereferenceable(93) %this1)
  store i64 %call3, ptr %ref.tmp2, align 4
  call void @llvm.memcpy.p0.p0.i64(ptr align 4 %useLag, ptr align 4 %ref.tmp2, i64 8, i1 false), !tbaa.struct !33
  call void @llvm.lifetime.end.p0(i64 8, ptr %ref.tmp2) #17
  br label %if.end

if.end:                                           ; preds = %if.then, %entry
  call void @llvm.lifetime.start.p0(i64 8, ptr %useDate) #17
  call void @_ZN8QuantLib4DateC1Ev(ptr noundef nonnull align 8 dereferenceable(8) %useDate)
  %vtable4 = load ptr, ptr %this1, align 8, !tbaa !26
  %vfn5 = getelementptr inbounds ptr, ptr %vtable4, i64 16
  %3 = load ptr, ptr %vfn5, align 8
  %call6 = call noundef zeroext i1 %3(ptr noundef nonnull align 8 dereferenceable(93) %this1)
  br i1 %call6, label %if.then7, label %if.else

if.then7:                                         ; preds = %if.end
  call void @llvm.lifetime.start.p0(i64 8, ptr %ref.tmp8) #17
  %4 = load ptr, ptr %maturityDate.addr, align 8, !tbaa !3
  %call9 = call i64 @_ZNK8QuantLib4DatemiERKNS_6PeriodE(ptr noundef nonnull align 8 dereferenceable(8) %4, ptr noundef nonnull align 4 dereferenceable(8) %useLag)
  %coerce.dive = getelementptr inbounds nuw %"class.QuantLib::Date", ptr %ref.tmp8, i32 0, i32 0
  store i64 %call9, ptr %coerce.dive, align 8
  call void @llvm.memcpy.p0.p0.i64(ptr align 8 %useDate, ptr align 8 %ref.tmp8, i64 8, i1 false), !tbaa.struct !39
  call void @llvm.lifetime.end.p0(i64 8, ptr %ref.tmp8) #17
  br label %if.end18

if.else:                                          ; preds = %if.end
  call void @llvm.lifetime.start.p0(i64 16, ptr %ref.tmp10) #17
  call void @llvm.lifetime.start.p0(i64 8, ptr %ref.tmp11) #17
  %5 = load ptr, ptr %maturityDate.addr, align 8, !tbaa !3
  %call12 = call i64 @_ZNK8QuantLib4DatemiERKNS_6PeriodE(ptr noundef nonnull align 8 dereferenceable(8) %5, ptr noundef nonnull align 4 dereferenceable(8) %useLag)
  %coerce.dive13 = getelementptr inbounds nuw %"class.QuantLib::Date", ptr %ref.tmp11, i32 0, i32 0
  store i64 %call12, ptr %coerce.dive13, align 8
  %vtable14 = load ptr, ptr %this1, align 8, !tbaa !26
  %vfn15 = getelementptr inbounds ptr, ptr %vtable14, i64 15
  %6 = load ptr, ptr %vfn15, align 8
  %call16 = call noundef i32 %6(ptr noundef nonnull align 8 dereferenceable(93) %this1)
  %call17 = call { i64, i64 } @_ZN8QuantLib15inflationPeriodERKNS_4DateENS_9FrequencyE(ptr noundef nonnull align 8 dereferenceable(8) %ref.tmp11, i32 noundef %call16)
  %7 = getelementptr inbounds nuw { i64, i64 }, ptr %ref.tmp10, i32 0, i32 0
  %8 = extractvalue { i64, i64 } %call17, 0
  store i64 %8, ptr %7, align 8
  %9 = getelementptr inbounds nuw { i64, i64 }, ptr %ref.tmp10, i32 0, i32 1
  %10 = extractvalue { i64, i64 } %call17, 1
  store i64 %10, ptr %9, align 8
  %first = getelementptr inbounds nuw %"struct.std::pair", ptr %ref.tmp10, i32 0, i32 0
  call void @llvm.memcpy.p0.p0.i64(ptr align 8 %useDate, ptr align 8 %first, i64 8, i1 false), !tbaa.struct !39
  call void @llvm.lifetime.end.p0(i64 8, ptr %ref.tmp11) #17
  call void @llvm.lifetime.end.p0(i64 16, ptr %ref.tmp10) #17
  br label %if.end18

if.end18:                                         ; preds = %if.else, %if.then7
  call void @llvm.lifetime.start.p0(i64 16, ptr %ref.tmp19) #17
  %vtable20 = load ptr, ptr %this1, align 8, !tbaa !26
  %vfn21 = getelementptr inbounds ptr, ptr %vtable20, i64 2
  %11 = load ptr, ptr %vfn21, align 8
  call void %11(ptr dead_on_unwind writable sret(%"class.QuantLib::DayCounter") align 8 %ref.tmp19, ptr noundef nonnull align 8 dereferenceable(64) %this1)
  call void @llvm.lifetime.start.p0(i64 8, ptr %ref.tmp22) #17
  %vtable23 = load ptr, ptr %this1, align 8, !tbaa !26
  %vfn24 = getelementptr inbounds ptr, ptr %vtable23, i64 17
  %12 = load ptr, ptr %vfn24, align 8
  %call25 = invoke i64 %12(ptr noundef nonnull align 8 dereferenceable(93) %this1)
          to label %invoke.cont unwind label %lpad

invoke.cont:                                      ; preds = %if.end18
  %coerce.dive26 = getelementptr inbounds nuw %"class.QuantLib::Date", ptr %ref.tmp22, i32 0, i32 0
  store i64 %call25, ptr %coerce.dive26, align 8
  call void @llvm.lifetime.start.p0(i64 8, ptr %ref.tmp27) #17
  invoke void @_ZN8QuantLib4DateC1Ev(ptr noundef nonnull align 8 dereferenceable(8) %ref.tmp27)
          to label %invoke.cont29 unwind label %lpad28

invoke.cont29:                                    ; preds = %invoke.cont
  call void @llvm.lifetime.start.p0(i64 8, ptr %ref.tmp30) #17
  invoke void @_ZN8QuantLib4DateC1Ev(ptr noundef nonnull align 8 dereferenceable(8) %ref.tmp30)
          to label %invoke.cont32 unwind label %lpad31

invoke.cont32:                                    ; preds = %invoke.cont29
  %call34 = invoke noundef double @_ZNK8QuantLib10DayCounter12yearFractionERKNS_4DateES3_S3_S3_(ptr noundef nonnull align 8 dereferenceable(16) %ref.tmp19, ptr noundef nonnull align 8 dereferenceable(8) %ref.tmp22, ptr noundef nonnull align 8 dereferenceable(8) %useDate, ptr noundef nonnull align 8 dereferenceable(8) %ref.tmp27, ptr noundef nonnull align 8 dereferenceable(8) %ref.tmp30)
          to label %invoke.cont33 unwind label %lpad31

invoke.cont33:                                    ; preds = %invoke.cont32
  call void @llvm.lifetime.end.p0(i64 8, ptr %ref.tmp30) #17
  call void @llvm.lifetime.end.p0(i64 8, ptr %ref.tmp27) #17
  call void @llvm.lifetime.end.p0(i64 8, ptr %ref.tmp22) #17
  call void @_ZN8QuantLib10DayCounterD2Ev(ptr noundef nonnull align 8 dereferenceable(16) %ref.tmp19) #17
  call void @llvm.lifetime.end.p0(i64 16, ptr %ref.tmp19) #17
  call void @llvm.lifetime.end.p0(i64 8, ptr %useDate) #17
  call void @llvm.lifetime.end.p0(i64 8, ptr %useLag) #17
  ret double %call34

lpad:                                             ; preds = %if.end18
  %13 = landingpad { ptr, i32 }
          cleanup
  %14 = extractvalue { ptr, i32 } %13, 0
  store ptr %14, ptr %exn.slot, align 8
  %15 = extractvalue { ptr, i32 } %13, 1
  store i32 %15, ptr %ehselector.slot, align 4
  br label %ehcleanup35

lpad28:                                           ; preds = %invoke.cont
  %16 = landingpad { ptr, i32 }
          cleanup
  %17 = extractvalue { ptr, i32 } %16, 0
  store ptr %17, ptr %exn.slot, align 8
  %18 = extractvalue { ptr, i32 } %16, 1
  store i32 %18, ptr %ehselector.slot, align 4
  br label %ehcleanup

lpad31:                                           ; preds = %invoke.cont32, %invoke.cont29
  %19 = landingpad { ptr, i32 }
          cleanup
  %20 = extractvalue { ptr, i32 } %19, 0
  store ptr %20, ptr %exn.slot, align 8
  %21 = extractvalue { ptr, i32 } %19, 1
  store i32 %21, ptr %ehselector.slot, align 4
  call void @llvm.lifetime.end.p0(i64 8, ptr %ref.tmp30) #17
  br label %ehcleanup

ehcleanup:                                        ; preds = %lpad31, %lpad28
  call void @llvm.lifetime.end.p0(i64 8, ptr %ref.tmp27) #17
  br label %ehcleanup35

ehcleanup35:                                      ; preds = %ehcleanup, %lpad
  call void @llvm.lifetime.end.p0(i64 8, ptr %ref.tmp22) #17
  call void @_ZN8QuantLib10DayCounterD2Ev(ptr noundef nonnull align 8 dereferenceable(16) %ref.tmp19) #17
  call void @llvm.lifetime.end.p0(i64 16, ptr %ref.tmp19) #17
  call void @llvm.lifetime.end.p0(i64 8, ptr %useDate) #17
  call void @llvm.lifetime.end.p0(i64 8, ptr %useLag) #17
  br label %eh.resume

eh.resume:                                        ; preds = %ehcleanup35
  %exn = load ptr, ptr %exn.slot, align 8
  %sel = load i32, ptr %ehselector.slot, align 4
  %lpad.val = insertvalue { ptr, i32 } poison, ptr %exn, 0
  %lpad.val40 = insertvalue { ptr, i32 } %lpad.val, i32 %sel, 1
  resume { ptr, i32 } %lpad.val40
}