; Function Attrs: mustprogress uwtable
define noundef double @_ZNK8QuantLib20CPIVolatilitySurface12timeFromBaseERKNS_4DateERKNS_6PeriodE(ptr noundef nonnull align 8 dereferenceable(93) %this, ptr noundef nonnull align 8 dereferenceable(8) %maturityDate, ptr noundef nonnull align 4 dereferenceable(8) %obsLag) unnamed_addr #6 align 2 personality ptr @__gxx_personality_v0 {
entry:
  %ref.tmp = alloca %"class.QuantLib::Period", align 4
  %useDate = alloca %"class.QuantLib::Date", align 8
  %ref.tmp11 = alloca %"class.QuantLib::Date", align 8
  %ref.tmp19 = alloca %"class.QuantLib::DayCounter", align 8
  %ref.tmp22 = alloca %"class.QuantLib::Date", align 8
  %ref.tmp27 = alloca %"class.QuantLib::Date", align 8
  %ref.tmp30 = alloca %"class.QuantLib::Date", align 8
  %0 = load i64, ptr %obsLag, align 4
  call void @llvm.lifetime.start.p0(i64 8, ptr nonnull %ref.tmp) #19
  store i32 -1, ptr %ref.tmp, align 4, !tbaa !43
  %units_.i = getelementptr inbounds nuw i8, ptr %ref.tmp, i64 4
  store i32 0, ptr %units_.i, align 4, !tbaa !44
  %call.i = call noundef zeroext i1 @_ZN8QuantLibltERKNS_6PeriodES2_(ptr noundef nonnull align 4 dereferenceable(8) %obsLag, ptr noundef nonnull align 4 dereferenceable(8) %ref.tmp)
  br i1 %call.i, label %_ZN8QuantLibeqERKNS_6PeriodES2_.exit.thread, label %_ZN8QuantLibeqERKNS_6PeriodES2_.exit

_ZN8QuantLibeqERKNS_6PeriodES2_.exit.thread:      ; preds = %entry
  call void @llvm.lifetime.end.p0(i64 8, ptr nonnull %ref.tmp) #19
  br label %if.end

_ZN8QuantLibeqERKNS_6PeriodES2_.exit:             ; preds = %entry
  %call1.i = call noundef zeroext i1 @_ZN8QuantLibltERKNS_6PeriodES2_(ptr noundef nonnull align 4 dereferenceable(8) %ref.tmp, ptr noundef nonnull align 4 dereferenceable(8) %obsLag)
  call void @llvm.lifetime.end.p0(i64 8, ptr nonnull %ref.tmp) #19
  br i1 %call1.i, label %if.end, label %if.then

if.then:                                          ; preds = %_ZN8QuantLibeqERKNS_6PeriodES2_.exit
  %vtable = load ptr, ptr %this, align 8, !tbaa !22
  %vfn = getelementptr inbounds i8, ptr %vtable, i64 112
  %1 = load ptr, ptr %vfn, align 8
  %call3 = call i64 %1(ptr noundef nonnull align 8 dereferenceable(93) %this)
  br label %if.end

if.end:                                           ; preds = %_ZN8QuantLibeqERKNS_6PeriodES2_.exit.thread, %if.then, %_ZN8QuantLibeqERKNS_6PeriodES2_.exit
  %useLag.sroa.7.0.in.in = phi i64 [ %call3, %if.then ], [ %0, %_ZN8QuantLibeqERKNS_6PeriodES2_.exit ], [ %0, %_ZN8QuantLibeqERKNS_6PeriodES2_.exit.thread ]
  %useLag.sroa.0.0 = trunc i64 %useLag.sroa.7.0.in.in to i32
  %useLag.sroa.7.0.in = lshr i64 %useLag.sroa.7.0.in.in, 32
  %useLag.sroa.7.0 = trunc nuw i64 %useLag.sroa.7.0.in to i32
  call void @llvm.lifetime.start.p0(i64 8, ptr nonnull %useDate) #19
  call void @_ZN8QuantLib4DateC1Ev(ptr noundef nonnull align 8 dereferenceable(8) %useDate)
  %vtable4 = load ptr, ptr %this, align 8, !tbaa !22
  %vfn5 = getelementptr inbounds i8, ptr %vtable4, i64 128
  %2 = load ptr, ptr %vfn5, align 8
  %call6 = call noundef zeroext i1 %2(ptr noundef nonnull align 8 dereferenceable(93) %this)
  br i1 %call6, label %if.then7, label %if.else

if.then7:                                         ; preds = %if.end
  %sub.i = sub nsw i32 0, %useLag.sroa.0.0
  %call3.i = call i64 @_ZN8QuantLib4Date7advanceERKS0_iNS_8TimeUnitE(ptr noundef nonnull align 8 dereferenceable(8) %maturityDate, i32 noundef %sub.i, i32 noundef %useLag.sroa.7.0)
  br label %if.end18

if.else:                                          ; preds = %if.end
  call void @llvm.lifetime.start.p0(i64 8, ptr nonnull %ref.tmp11) #19
  %sub.i5 = sub nsw i32 0, %useLag.sroa.0.0
  %call3.i7 = call i64 @_ZN8QuantLib4Date7advanceERKS0_iNS_8TimeUnitE(ptr noundef nonnull align 8 dereferenceable(8) %maturityDate, i32 noundef %sub.i5, i32 noundef %useLag.sroa.7.0)
  store i64 %call3.i7, ptr %ref.tmp11, align 8
  %vtable14 = load ptr, ptr %this, align 8, !tbaa !22
  %vfn15 = getelementptr inbounds i8, ptr %vtable14, i64 120
  %3 = load ptr, ptr %vfn15, align 8
  %call16 = call noundef i32 %3(ptr noundef nonnull align 8 dereferenceable(93) %this)
  %call17 = call { i64, i64 } @_ZN8QuantLib15inflationPeriodERKNS_4DateENS_9FrequencyE(ptr noundef nonnull align 8 dereferenceable(8) %ref.tmp11, i32 noundef %call16)
  %4 = extractvalue { i64, i64 } %call17, 0
  call void @llvm.lifetime.end.p0(i64 8, ptr nonnull %ref.tmp11) #19
  br label %if.end18

if.end18:                                         ; preds = %if.else, %if.then7
  %.sink = phi i64 [ %call3.i, %if.then7 ], [ %4, %if.else ]
  store i64 %.sink, ptr %useDate, align 8
  call void @llvm.lifetime.start.p0(i64 16, ptr nonnull %ref.tmp19) #19
  %vtable20 = load ptr, ptr %this, align 8, !tbaa !22
  %vfn21 = getelementptr inbounds i8, ptr %vtable20, i64 16
  %5 = load ptr, ptr %vfn21, align 8
  call void %5(ptr dead_on_unwind nonnull writable sret(%"class.QuantLib::DayCounter") align 8 %ref.tmp19, ptr noundef nonnull align 8 dereferenceable(64) %this)
  call void @llvm.lifetime.start.p0(i64 8, ptr nonnull %ref.tmp22) #19
  %vtable23 = load ptr, ptr %this, align 8, !tbaa !22
  %vfn24 = getelementptr inbounds i8, ptr %vtable23, i64 136
  %6 = load ptr, ptr %vfn24, align 8
  %call25 = invoke i64 %6(ptr noundef nonnull align 8 dereferenceable(93) %this)
          to label %invoke.cont unwind label %lpad

invoke.cont:                                      ; preds = %if.end18
  store i64 %call25, ptr %ref.tmp22, align 8
  call void @llvm.lifetime.start.p0(i64 8, ptr nonnull %ref.tmp27) #19
  invoke void @_ZN8QuantLib4DateC1Ev(ptr noundef nonnull align 8 dereferenceable(8) %ref.tmp27)
          to label %invoke.cont29 unwind label %lpad28

invoke.cont29:                                    ; preds = %invoke.cont
  call void @llvm.lifetime.start.p0(i64 8, ptr nonnull %ref.tmp30) #19
  invoke void @_ZN8QuantLib4DateC1Ev(ptr noundef nonnull align 8 dereferenceable(8) %ref.tmp30)
          to label %invoke.cont32 unwind label %lpad31

invoke.cont32:                                    ; preds = %invoke.cont29
  %call34 = invoke noundef double @_ZNK8QuantLib10DayCounter12yearFractionERKNS_4DateES3_S3_S3_(ptr noundef nonnull align 8 dereferenceable(16) %ref.tmp19, ptr noundef nonnull align 8 dereferenceable(8) %ref.tmp22, ptr noundef nonnull align 8 dereferenceable(8) %useDate, ptr noundef nonnull align 8 dereferenceable(8) %ref.tmp27, ptr noundef nonnull align 8 dereferenceable(8) %ref.tmp30)
          to label %invoke.cont33 unwind label %lpad31

invoke.cont33:                                    ; preds = %invoke.cont32
  call void @llvm.lifetime.end.p0(i64 8, ptr nonnull %ref.tmp30) #19
  call void @llvm.lifetime.end.p0(i64 8, ptr nonnull %ref.tmp27) #19
  call void @llvm.lifetime.end.p0(i64 8, ptr nonnull %ref.tmp22) #19
  %pn.i.i = getelementptr inbounds nuw i8, ptr %ref.tmp19, i64 8
  %7 = load ptr, ptr %pn.i.i, align 8, !tbaa !9
  %cmp.not.i.i.i = icmp eq ptr %7, null
  br i1 %cmp.not.i.i.i, label %_ZN8QuantLib10DayCounterD2Ev.exit, label %if.then.i.i.i

if.then.i.i.i:                                    ; preds = %invoke.cont33
  %use_count_.i.i.i.i = getelementptr inbounds nuw i8, ptr %7, i64 8
  %8 = atomicrmw sub ptr %use_count_.i.i.i.i, i32 1 acq_rel, align 4
  %cmp.i.i.i.i = icmp eq i32 %8, 1
  br i1 %cmp.i.i.i.i, label %if.then.i.i.i.i, label %_ZN8QuantLib10DayCounterD2Ev.exit

if.then.i.i.i.i:                                  ; preds = %if.then.i.i.i
  %vtable.i.i.i.i = load ptr, ptr %7, align 8, !tbaa !22
  %vfn.i.i.i.i = getelementptr inbounds i8, ptr %vtable.i.i.i.i, i64 16
  %9 = load ptr, ptr %vfn.i.i.i.i, align 8
  invoke void %9(ptr noundef nonnull align 8 dereferenceable(16) %7)
          to label %.noexc.i.i.i unwind label %terminate.lpad.i.i.i

.noexc.i.i.i:                                     ; preds = %if.then.i.i.i.i
  %weak_count_.i.i.i.i.i = getelementptr inbounds nuw i8, ptr %7, i64 12
  %10 = atomicrmw sub ptr %weak_count_.i.i.i.i.i, i32 1 acq_rel, align 4
  %cmp.i.i.i.i.i = icmp eq i32 %10, 1
  br i1 %cmp.i.i.i.i.i, label %if.then.i.i.i.i.i, label %_ZN8QuantLib10DayCounterD2Ev.exit

if.then.i.i.i.i.i:                                ; preds = %.noexc.i.i.i
  %vtable.i.i.i.i.i = load ptr, ptr %7, align 8, !tbaa !22
  %vfn.i.i.i.i.i = getelementptr inbounds i8, ptr %vtable.i.i.i.i.i, i64 24
  %11 = load ptr, ptr %vfn.i.i.i.i.i, align 8
  invoke void %11(ptr noundef nonnull align 8 dereferenceable(16) %7)
          to label %_ZN8QuantLib10DayCounterD2Ev.exit unwind label %terminate.lpad.i.i.i

terminate.lpad.i.i.i:                             ; preds = %if.then.i.i.i.i.i, %if.then.i.i.i.i
  %12 = landingpad { ptr, i32 }
          catch ptr null
  %13 = extractvalue { ptr, i32 } %12, 0
  call void @__clang_call_terminate(ptr %13) #20
  unreachable

_ZN8QuantLib10DayCounterD2Ev.exit:                ; preds = %invoke.cont33, %if.then.i.i.i, %.noexc.i.i.i, %if.then.i.i.i.i.i
  call void @llvm.lifetime.end.p0(i64 16, ptr nonnull %ref.tmp19) #19
  call void @llvm.lifetime.end.p0(i64 8, ptr nonnull %useDate) #19
  ret double %call34

lpad:                                             ; preds = %if.end18
  %14 = landingpad { ptr, i32 }
          cleanup
  br label %ehcleanup35

lpad28:                                           ; preds = %invoke.cont
  %15 = landingpad { ptr, i32 }
          cleanup
  br label %ehcleanup

lpad31:                                           ; preds = %invoke.cont32, %invoke.cont29
  %16 = landingpad { ptr, i32 }
          cleanup
  call void @llvm.lifetime.end.p0(i64 8, ptr nonnull %ref.tmp30) #19
  br label %ehcleanup

ehcleanup:                                        ; preds = %lpad31, %lpad28
  %.pn = phi { ptr, i32 } [ %16, %lpad31 ], [ %15, %lpad28 ]
  call void @llvm.lifetime.end.p0(i64 8, ptr nonnull %ref.tmp27) #19
  br label %ehcleanup35

ehcleanup35:                                      ; preds = %ehcleanup, %lpad
  %.pn.pn = phi { ptr, i32 } [ %.pn, %ehcleanup ], [ %14, %lpad ]
  call void @llvm.lifetime.end.p0(i64 8, ptr nonnull %ref.tmp22) #19
  call void @_ZN8QuantLib10DayCounterD2Ev(ptr noundef nonnull align 8 dereferenceable(16) %ref.tmp19) #19
  call void @llvm.lifetime.end.p0(i64 16, ptr nonnull %ref.tmp19) #19
  call void @llvm.lifetime.end.p0(i64 8, ptr nonnull %useDate) #19
  resume { ptr, i32 } %.pn.pn
}